(lp0
S'MSLRVRQIDRREWLLAQTATECQRHGREATLEYPTRQGMWVRLSDAEKRWSAWIKPGDWLEHVSPALAGAAVSAGAEHLVVPWLAATERPFELPVPHLSCRRLCVENPVPGSALPEGKLLHIMSDRGGLWFEHLPELPAVGGGRPKMLRWPLRFVIGSSDTQRSLLGRIGIGDVLLIRTSRAEVYCYAKKLGHFNRVEGGIIVETLDIQHIEEENNTTETAETLPGLNQLPVKLEFVLYRKNVTLAELEAMGQQQLLSLPTNAELNVEIMANGVLLGNGELVQMNDTLGVEIHEWLSESGNGE'
p1
aS'MSSNKTEKPTKKRLEDSAKKGQSFKSKDLIIACLTLGGIAYLVSYGSFNEFMGIIKIIIADNFDQSMADYSLAVFGIGLKYLIPFMLLCLVCSALPALLQAGFVLATEALKPNLSALNPVEGAKKLFSMRTVKDTVKTLLYLSSFVVAAIICWKKYKVEIFSQLNGNIVGIAVIWRELLLALVLTCLACALIVLLLDAIAEYFLTMKDMKMDKEEVKREMKEQEGNPEVKSKRREVHMEILSEQVKSDIENSRLIVANPTHITIGIYFKPELMPIPMISVYETNQRALAVRAYAEKVGVPVIVDIKLARSLFKTHRRYDLVSLEEIDEVLRLLVWLEEVENAGKDVIQPQENEVRH'
p2
aS'MGIFASAGCGKTMLMHMLIEQTEADVFVIGLIGERGREVTEFVDMLRASHKKEKCVLVFATSDFPSVDRCNAAQLATTVAEYFRDQGKRVVLFIDSMTRYARALRDVALASGERPARRGYPASVFDNLPRLLERPGATSEGSITAFYTVLLESEEEADPMADEIRSILDGHLYLSRKLAGQGHYPAIDVLKSVSRVFGQVTTPTHAEQASAVRKLMTRLEELQLFIDLGEYRPGENIDNDRAMQMRDSLKAWLCQPVAQYSSFDDTLSGMNAFADQN'
p3
aS'MGDVSAVSSSGNILLPQQDEVGGLSEALKKAVEKHKTEYSGDKKDRDYGDAFVMHKETALPLLLAAWRHGAPAKSEHHNGNVSGLHHNGKSELRIAEKLLKVTAEKSVGLISAEAKVDKSAALLSSKNRPLESVSGKKLSADLKAVESVSEVTDNATGISDDNIKALPGDNKAIAGEGVRKEGAPLARDVAPARMAAANTGKPEDKDHKKVKDVSQLPLQPTTIADLSQLTGGDEKMPLAAQSKPMMTIFPTADGVKGEDSSLTYRFQRWGNDYSVNIQARQAGEFSLIPSNTQVEHRLHDQWQNGNPQRWHLTRDDQQNPQQQQHRQQSGEEDDA'
p4
aS'MGNDISLIALLAFSTLLPFIIASGTCFVKFSIVFVMVRNALGLQQIPSNMTLNGVALLLSMFVMWPIMHDAYVYFEDEDVTFNDISSLSKHVDEGLDGYRDYLIKYSDRELVQFFENAQLKRQYGEETETVKRDKDEIEKPSIFALLPAYALSEIKSAFKIGFYLYLPFVVVDLVVSSVLLALGMMMMSPVTISTPIKLVLFVALDGWTLLSKGLILQYMDIAT'
p5
aS'MFYALYFEIHHLVASAALGFARVAPIFFFLPFLNSGVLSGAPRNAIIILVALGVWPHALNEAPPFLSVAMIPLVLQEAAVGVMLGCLLSWPFWVMHALGCIIDNQRGATLSSSIDPANGIDTSEMANFLNMFAAVVYLQNGGLVTMVDVLNKSYQLCDPMNECTPSLPPLLTFINQVAQNALVLASPVVLVLLLSEVFLGLLSRFAPQMNAFAISLTVKSGIAVLIMLLYFSPVLPDNVLRLSFQATGLSSWFYERGATHVLE'
p6
aS'MCNNFPSGSALPGTGFSTHKRRQDKCGTGNSNGRSVAASQGTTRCSAPAETAAPARAGETCSSQSPGLIQADHRFSASLNRTHIPCRVGYSSVASRPWRWHSVAVCANSHSRRSICLTRNDIRRHPPRQIAVCAVAAADFVDRLASGASAGDYRFAIDHANDVQPAYLTVLTKTPLLAAPEY'
p7
aS'MCRRRDLSKNAAYAFQYIDCRVMSLPGQLSAQIQVTVKDRANFIRHRVRLFLAFQQYRIKGSNASLAGRPWAFQQAGQIIEYGGGITSTSRTLSRRQCHVSQSTRITGHGIDKKHDPFSLVAKIFRYGCRQLRRIAAIDRGEIGSGKNQHAFFFLMRSAQHIHEFSDLTASFTDKTDNKDIRLRLLDQHMHQHGLTASCGGKNAHSLAYATGQ'
p8
a.